target datalayout = "e-m:e-p270:32:32-p271:32:32-p272:64:64-i64:64-i128:128-f80:128-n8:16:32:64-S128"
target triple = "x86_64-pc-linux-gnu"

%struct.ggml_backend = type { ptr, %struct.ggml_backend_i, ptr, ptr }
%struct.ggml_backend_i = type { ptr, ptr, ptr, ptr, ptr, ptr, ptr, ptr, ptr, ptr, ptr, ptr, ptr }

; Function Attrs: mustprogress uwtable
define void @ggml_backend_free(ptr noundef %0) #0 {
  %2 = alloca ptr, align 8
  store ptr %0, ptr %2, align 8, !tbaa !56
  %3 = load ptr, ptr %2, align 8, !tbaa !56
  %4 = icmp eq ptr %3, null
  br i1 %4, label %5, label %6

5:                                                ; preds = %1
  br label %12

6:                                                ; preds = %1
  %7 = load ptr, ptr %2, align 8, !tbaa !56
  %8 = getelementptr inbounds nuw %struct.ggml_backend, ptr %7, i32 0, i32 1
  %9 = getelementptr inbounds nuw %struct.ggml_backend_i, ptr %8, i32 0, i32 1
  %10 = load ptr, ptr %9, align 8, !tbaa !63
  %11 = load ptr, ptr %2, align 8, !tbaa !56
  call void %10(ptr noundef %11)
  br label %12

12:                                               ; preds = %6, %5
  ret void
}