; Function Attrs: mustprogress uwtable
define void @ggml_backend_free(ptr noundef %0) local_unnamed_addr #0 {
  %2 = icmp eq ptr %0, null
  br i1 %2, label %6, label %3

3:                                                ; preds = %1
  %4 = getelementptr inbounds nuw i8, ptr %0, i64 16
  %5 = load ptr, ptr %4, align 8, !tbaa !54
  tail call void %5(ptr noundef nonnull %0)
  br label %6

6:                                                ; preds = %1, %3
  ret void
}